; Function Attrs: mustprogress uwtable
define internal noundef i32 @_ZL11auxwrapcontP9lua_Statei(ptr noundef %0, i32 %1) #0 {
  %3 = tail call noundef ptr @_Z12lua_tothreadP9lua_Statei(ptr noundef %0, i32 noundef -10003)
  %4 = getelementptr inbounds i8, ptr %3, i64 3
  %5 = load i8, ptr %4, align 1
  %6 = icmp eq i8 %5, 6
  br i1 %6, label %7, label %14

7:                                                ; preds = %2
  %8 = getelementptr inbounds i8, ptr %0, i64 24
  %9 = load ptr, ptr %8, align 8
  %10 = getelementptr inbounds i8, ptr %9, i64 3344
  %11 = load ptr, ptr %10, align 8
  %.not.i = icmp eq ptr %11, null
  br i1 %.not.i, label %_ZL15interruptThreadP9lua_StateS0_.exit, label %12

12:                                               ; preds = %7
  tail call void @_Z13luau_callhookP9lua_StatePFvS0_P9lua_DebugEPv(ptr noundef nonnull %0, ptr noundef nonnull %11, ptr noundef nonnull %3)
  br label %_ZL15interruptThreadP9lua_StateS0_.exit

_ZL15interruptThreadP9lua_StateS0_.exit:          ; preds = %7, %12
  %13 = tail call noundef i32 @_Z9lua_breakP9lua_State(ptr noundef nonnull %0)
  br label %_ZL13auxwrapfinishP9lua_Statei.exit

14:                                               ; preds = %2
  %switch.i = icmp ult i8 %5, 2
  br i1 %switch.i, label %15, label %_ZL13auxresumecontP9lua_StateS0_.exit.thread

15:                                               ; preds = %14
  %16 = getelementptr inbounds i8, ptr %3, i64 8
  %17 = load ptr, ptr %16, align 8
  %18 = getelementptr inbounds i8, ptr %3, i64 16
  %19 = load ptr, ptr %18, align 8
  %20 = ptrtoint ptr %17 to i64
  %21 = ptrtoint ptr %19 to i64
  %22 = sub i64 %20, %21
  %23 = lshr exact i64 %22, 4
  %24 = trunc i64 %23 to i32
  %25 = add nsw i32 %24, 1
  %26 = tail call noundef i32 @_Z14lua_checkstackP9lua_Statei(ptr noundef %0, i32 noundef %25)
  %.not.i8 = icmp eq i32 %26, 0
  br i1 %.not.i8, label %27, label %_ZL13auxresumecontP9lua_StateS0_.exit

27:                                               ; preds = %15
  tail call void (ptr, ptr, ...) @_Z11luaL_errorLP9lua_StatePKcz(ptr noundef %0, ptr noundef nonnull @.str.15) #3
  unreachable

_ZL13auxresumecontP9lua_StateS0_.exit.thread:     ; preds = %14
  tail call void @_Z17lua_rawcheckstackP9lua_Statei(ptr noundef %0, i32 noundef 2)
  tail call void @_Z9lua_xmoveP9lua_StateS0_i(ptr noundef nonnull %3, ptr noundef %0, i32 noundef 1)
  br label %29

_ZL13auxresumecontP9lua_StateS0_.exit:            ; preds = %15
  tail call void @_Z9lua_xmoveP9lua_StateS0_i(ptr noundef nonnull %3, ptr noundef %0, i32 noundef %24)
  %28 = icmp slt i32 %24, 0
  br i1 %28, label %29, label %_ZL13auxwrapfinishP9lua_Statei.exit

29:                                               ; preds = %_ZL13auxresumecontP9lua_StateS0_.exit.thread, %_ZL13auxresumecontP9lua_StateS0_.exit
  %30 = tail call noundef i32 @_Z12lua_isstringP9lua_Statei(ptr noundef %0, i32 noundef -1)
  %.not.i9 = icmp eq i32 %30, 0
  br i1 %.not.i9, label %32, label %31

31:                                               ; preds = %29
  tail call void @_Z10luaL_whereP9lua_Statei(ptr noundef %0, i32 noundef 1)
  tail call void @_Z10lua_insertP9lua_Statei(ptr noundef %0, i32 noundef -2)
  tail call void @_Z10lua_concatP9lua_Statei(ptr noundef %0, i32 noundef 2)
  br label %32

32:                                               ; preds = %31, %29
  tail call void @_Z9lua_errorP9lua_State(ptr noundef %0) #3
  unreachable

_ZL13auxwrapfinishP9lua_Statei.exit:              ; preds = %_ZL13auxresumecontP9lua_StateS0_.exit, %_ZL15interruptThreadP9lua_StateS0_.exit
  %.0 = phi i32 [ %13, %_ZL15interruptThreadP9lua_StateS0_.exit ], [ %24, %_ZL13auxresumecontP9lua_StateS0_.exit ]
  ret i32 %.0
}